(lp1
Vhttps://avatars.slack-edge.com/2017-04-06/165424105443_18773a2dd9491afb3dc3_192.jpg
p2
aVhttps://avatars.slack-edge.com/2017-04-04/163971721249_6b34604d0d85ea9e666f_192.jpg
p3
aVhttps://avatars.slack-edge.com/2017-04-10/167106772980_953d1aa121f4070bdf32_192.jpg
p4
aVhttps://avatars.slack-edge.com/2017-01-12/126059060976_4a06d68525931b203bef_192.jpg
p5
aVhttps://avatars.slack-edge.com/2017-04-03/163256681520_456d35dc8ad1bf60d4a8_192.jpg
p6
aVhttps://avatars.slack-edge.com/2017-04-06/166463140119_8126c22f0fea2e74dca8_192.jpg
p7
aVhttps://avatars.slack-edge.com/2017-04-06/165766181044_aac5ca129b62c3e43594_192.jpg
p8
aVhttps://avatars.slack-edge.com/2017-04-08/166598578949_ec07b0a15ccf5e999f08_192.jpg
p9
aVhttps://avatars.slack-edge.com/2017-01-24/131306811761_07aa39334bcdada7e3fe_192.jpg
p10
aVhttps://avatars.slack-edge.com/2017-01-19/130719642086_ea0295275580c3b8e2cb_192.jpg
p11
aVhttps://avatars.slack-edge.com/2017-04-04/164872330023_e060c04b371670263608_192.png
p12
aVhttps://avatars.slack-edge.com/2017-03-31/162864425605_8f5e2e01c5b622ca0195_192.png
p13
aVhttps://avatars.slack-edge.com/2017-04-10/166284430977_5ed537f3bc6975821bd7_192.jpg
p14
aVhttps://avatars.slack-edge.com/2017-04-07/166426958243_fbf864052e037a4a5fe1_192.jpg
p15
aVhttps://avatars.slack-edge.com/2017-04-05/165230483955_0bcd978ca18c202993c8_192.png
p16
aVhttps://avatars.slack-edge.com/2017-04-07/166047628019_c03859648ae52dde2a1b_192.jpg
p17
aVhttps://avatars.slack-edge.com/2017-03-31/163360510199_aba0e6a022485c1484a5_192.png
p18
aVhttps://secure.gravatar.com/avatar/aab8e0038af40858804899b8e04c2a34.jpg?s=192&d=https%3A%2F%2Fa.slack-edge.com%2F7fa9%2Fimg%2Favatars%2Fava_0007-192.png
p19
aVhttps://avatars.slack-edge.com/2017-04-03/163937837075_d84ceb26330ecf20d3e5_192.jpg
p20
aVhttps://avatars.slack-edge.com/2017-04-06/166035505959_3e0495f3f64d16090bd2_192.png
p21
aVhttps://avatars.slack-edge.com/2017-04-06/165865929475_ae1f66167d3299d03298_192.png
p22
aVhttps://avatars.slack-edge.com/2017-04-08/165866963344_0d8cdc200b5d240e9122_192.jpg
p23
aVhttps://avatars.slack-edge.com/2017-03-24/160046513622_d444ce26be49237eb0e0_192.png
p24
aVhttps://avatars.slack-edge.com/2017-03-23/159710944358_4d60e10040c161ccb01a_192.jpg
p25
aVhttps://avatars.slack-edge.com/2017-04-06/165227713584_669bcb32abcce77acf89_192.jpg
p26
aVhttps://avatars.slack-edge.com/2017-04-10/167957185254_0a549460f1e9e34dda86_192.jpg
p27
aVhttps://avatars.slack-edge.com/2017-04-06/165773755780_3463fc36b445c7553d76_192.jpg
p28
a.