(lp1
Vhttps://avatars.slack-edge.com/2017-04-06/165424105443_18773a2dd9491afb3dc3_72.jpg
p2
aVhttps://avatars.slack-edge.com/2017-04-04/163971721249_6b34604d0d85ea9e666f_72.jpg
p3
aVhttps://secure.gravatar.com/avatar/2c64cef85ee974a2a44b4ff4b4c5adf4.jpg?s=72&d=https%3A%2F%2Fa.slack-edge.com%2F3654%2Fimg%2Favatars%2Fava_0018-72.png
p4
aVhttps://avatars.slack-edge.com/2017-01-12/126059060976_4a06d68525931b203bef_72.jpg
p5
aVhttps://avatars.slack-edge.com/2017-04-03/163256681520_456d35dc8ad1bf60d4a8_72.jpg
p6
aVhttps://avatars.slack-edge.com/2017-04-06/166463140119_8126c22f0fea2e74dca8_72.jpg
p7
aVhttps://avatars.slack-edge.com/2017-04-06/165766181044_aac5ca129b62c3e43594_72.jpg
p8
aVhttps://secure.gravatar.com/avatar/93fa2f547d76c73206668bb20388b31c.jpg?s=72&d=https%3A%2F%2Fa.slack-edge.com%2F66f9%2Fimg%2Favatars%2Fava_0004-72.png
p9
aVhttps://avatars.slack-edge.com/2017-01-24/131306811761_07aa39334bcdada7e3fe_72.jpg
p10
aVhttps://avatars.slack-edge.com/2017-01-19/130719642086_ea0295275580c3b8e2cb_72.jpg
p11
aVhttps://avatars.slack-edge.com/2017-04-04/164872330023_e060c04b371670263608_72.png
p12
aVhttps://avatars.slack-edge.com/2017-03-31/162864425605_8f5e2e01c5b622ca0195_72.png
p13
aVhttps://secure.gravatar.com/avatar/da85aa962d5c1d86d846a4bf7f6893c2.jpg?s=72&d=https%3A%2F%2Fa.slack-edge.com%2F66f9%2Fimg%2Favatars%2Fava_0019-72.png
p14
aVhttps://avatars.slack-edge.com/2017-04-06/165915628530_2f82e2bc549eba4de8ff_72.jpg
p15
aVhttps://avatars.slack-edge.com/2017-04-05/165230483955_0bcd978ca18c202993c8_72.png
p16
aVhttps://avatars.slack-edge.com/2017-04-07/166047628019_c03859648ae52dde2a1b_72.jpg
p17
aVhttps://avatars.slack-edge.com/2017-03-31/163360510199_aba0e6a022485c1484a5_72.png
p18
aVhttps://secure.gravatar.com/avatar/aab8e0038af40858804899b8e04c2a34.jpg?s=72&d=https%3A%2F%2Fa.slack-edge.com%2F66f9%2Fimg%2Favatars%2Fava_0007-72.png
p19
aVhttps://avatars.slack-edge.com/2017-04-03/163937837075_d84ceb26330ecf20d3e5_72.jpg
p20
aVhttps://avatars.slack-edge.com/2017-04-06/166035505959_3e0495f3f64d16090bd2_72.png
p21
aVhttps://avatars.slack-edge.com/2017-04-06/165865929475_ae1f66167d3299d03298_72.png
p22
aVhttps://secure.gravatar.com/avatar/b4493ec774cc1c1c05dffd980c8c3a39.jpg?s=72&d=https%3A%2F%2Fa.slack-edge.com%2F66f9%2Fimg%2Favatars%2Fava_0014-72.png
p23
aVhttps://avatars.slack-edge.com/2017-03-24/160046513622_d444ce26be49237eb0e0_72.png
p24
aVhttps://avatars.slack-edge.com/2017-03-23/159710944358_4d60e10040c161ccb01a_72.jpg
p25
aVhttps://avatars.slack-edge.com/2017-04-06/165227713584_669bcb32abcce77acf89_72.jpg
p26
aVhttps://secure.gravatar.com/avatar/2dc75fa223a4cc41f99fe78a595cc345.jpg?s=72&d=https%3A%2F%2Fa.slack-edge.com%2F66f9%2Fimg%2Favatars%2Fava_0019-72.png
p27
aVhttps://avatars.slack-edge.com/2017-04-06/165773755780_3463fc36b445c7553d76_72.jpg
p28
a.