(lp1
Vhttps://secure.gravatar.com/avatar/d70ecace632201af196c59a022a96c0b.jpg?s=72&d=https%3A%2F%2Fa.slack-edge.com%2F66f9%2Fimg%2Favatars%2Fava_0015-72.png
p2
aVhttps://avatars.slack-edge.com/2017-04-04/163971721249_6b34604d0d85ea9e666f_72.jpg
p3
aVhttps://secure.gravatar.com/avatar/2c64cef85ee974a2a44b4ff4b4c5adf4.jpg?s=72&d=https%3A%2F%2Fa.slack-edge.com%2F3654%2Fimg%2Favatars%2Fava_0018-72.png
p4
aVhttps://avatars.slack-edge.com/2017-01-12/126059060976_4a06d68525931b203bef_72.jpg
p5
aVhttps://avatars.slack-edge.com/2017-04-03/163256681520_456d35dc8ad1bf60d4a8_72.jpg
p6
aVhttps://secure.gravatar.com/avatar/b4e5ae893ffb13384d14908561bf3f83.jpg?s=72&d=https%3A%2F%2Fa.slack-edge.com%2F3654%2Fimg%2Favatars%2Fava_0001-72.png
p7
aVhttps://avatars.slack-edge.com/2017-04-03/163309818592_e64a6026b772bf755499_72.jpg
p8
aVhttps://secure.gravatar.com/avatar/93fa2f547d76c73206668bb20388b31c.jpg?s=72&d=https%3A%2F%2Fa.slack-edge.com%2F66f9%2Fimg%2Favatars%2Fava_0004-72.png
p9
aVhttps://avatars.slack-edge.com/2017-01-24/131306811761_07aa39334bcdada7e3fe_72.jpg
p10
aVhttps://avatars.slack-edge.com/2017-01-19/130719642086_ea0295275580c3b8e2cb_72.jpg
p11
aVhttps://avatars.slack-edge.com/2017-04-04/164872330023_e060c04b371670263608_72.png
p12
aVhttps://avatars.slack-edge.com/2017-03-31/162864425605_8f5e2e01c5b622ca0195_72.png
p13
aVhttps://secure.gravatar.com/avatar/da85aa962d5c1d86d846a4bf7f6893c2.jpg?s=72&d=https%3A%2F%2Fa.slack-edge.com%2F66f9%2Fimg%2Favatars%2Fava_0019-72.png
p14
aVhttps://avatars.slack-edge.com/2017-04-03/164024596181_dd953fb7bbdd22bd3b6a_72.jpg
p15
aVhttps://secure.gravatar.com/avatar/b1cb10fc537bf353d19b2454f93c6493.jpg?s=72&d=https%3A%2F%2Fa.slack-edge.com%2F66f9%2Fimg%2Favatars%2Fava_0005-72.png
p16
aVhttps://secure.gravatar.com/avatar/a948c61c0f5356c1146fbf95c98c3ed6.jpg?s=72&d=https%3A%2F%2Fa.slack-edge.com%2F66f9%2Fimg%2Favatars%2Fava_0006-72.png
p17
aVhttps://avatars.slack-edge.com/2017-03-31/163360510199_aba0e6a022485c1484a5_72.png
p18
aVhttps://secure.gravatar.com/avatar/aab8e0038af40858804899b8e04c2a34.jpg?s=72&d=https%3A%2F%2Fa.slack-edge.com%2F66f9%2Fimg%2Favatars%2Fava_0007-72.png
p19
aVhttps://avatars.slack-edge.com/2017-04-03/163937837075_d84ceb26330ecf20d3e5_72.jpg
p20
aVhttps://secure.gravatar.com/avatar/cffac84a77db93e26e9dc75657b02671.jpg?s=72&d=https%3A%2F%2Fa.slack-edge.com%2F3654%2Fimg%2Favatars%2Fava_0023-72.png
p21
aVhttps://secure.gravatar.com/avatar/56396fb73a7723f396393808f5de4176.jpg?s=72&d=https%3A%2F%2Fa.slack-edge.com%2F66f9%2Fimg%2Favatars%2Fava_0020-72.png
p22
aVhttps://secure.gravatar.com/avatar/b4493ec774cc1c1c05dffd980c8c3a39.jpg?s=72&d=https%3A%2F%2Fa.slack-edge.com%2F66f9%2Fimg%2Favatars%2Fava_0014-72.png
p23
aVhttps://avatars.slack-edge.com/2017-03-24/160046513622_d444ce26be49237eb0e0_72.png
p24
aVhttps://avatars.slack-edge.com/2017-03-23/159710944358_4d60e10040c161ccb01a_72.jpg
p25
aVhttps://secure.gravatar.com/avatar/14d27a2d92c9b85bf84049fd1043c6d8.jpg?s=72&d=https%3A%2F%2Fa.slack-edge.com%2F66f9%2Fimg%2Favatars%2Fava_0007-72.png
p26
aVhttps://secure.gravatar.com/avatar/2dc75fa223a4cc41f99fe78a595cc345.jpg?s=72&d=https%3A%2F%2Fa.slack-edge.com%2F66f9%2Fimg%2Favatars%2Fava_0019-72.png
p27
aVhttps://secure.gravatar.com/avatar/ab8dfd5aaa1675e3ac764e42e6c111df.jpg?s=72&d=https%3A%2F%2Fa.slack-edge.com%2F66f9%2Fimg%2Favatars%2Fava_0007-72.png
p28
a.