(lp1
VJenn Key
p2
aVKy Kiefer
p3
aVBob Corboy
p4
aVDouglas Schuster
p5
aVStuart King
p6
aVPeter Nygaard
p7
aVSteven Harshman
p8
aVLindsey Eggleston
p9
aVTim Kahn
p10
aVBenjamin Siverly
p11
aVJon Courtney
p12
aVBill Vander Lugt
p13
aVParker Stevens
p14
aVShane Milek
p15
aVMegan Bultema
p16
aVDale Taylor
p17
aVCameron Powers
p18
aVIan McCann
p19
aVJason Olson
p20
aVJohn Sullivan
p21
aVMicah Shanks
p22
aVBlair Thurman
p23
aVJohn Patrick Prendergast
p24
aVSteve Kientz
p25
aVTabor Henderson
p26
aVChloe Mays
p27
aVJen Waller
p28
a.