(lp1
VDrew Hammerbeck
p2
aVJenn Key
p3
aVKy Kiefer
p4
aVRobert Corboy
p5
aVDouglas Schuster
p6
aVStuart King
p7
aVPeter Nygaard
p8
aVSteven Harshman
p9
aVLindsey Eggleston
p10
aVTim Kahn
p11
aVBenjamin Siverly
p12
aVJon Courtney
p13
aVBill Vander Lugt
p14
aVParker Stevens
p15
aVShane Milek
p16
aVMegan Bultema
p17
aVDale Taylor
p18
aVCameron Powers
p19
aVIan McCann
p20
aVJason Olson
p21
aVJohn Sullivan
p22
aVMicah Shanks
p23
aVBlair Thurman
p24
aVJohn Patrick Prendergast
p25
aVSteve Kientz
p26
aVTabor Henderson
p27
aVChloe Mays
p28
aVJen Waller
p29
a.